target datalayout = "e-m:e-p270:32:32-p271:32:32-p272:64:64-i64:64-i128:128-f80:128-n8:16:32:64-S128"
target triple = "x86_64-pc-linux-gnu"

%struct.cmsysProcess_s = type { ptr, i32, [3 x i32], [3 x i32], i32, [1024 x i8], ptr, i32, double, ptr, i32, i32, i32, i32, i32, %struct.kwsysProcessTime_s, %struct.kwsysProcessTime_s, i32, i32, %struct.fd_set, i32, i32, i32, [1025 x i8], ptr, ptr, ptr, ptr, ptr, i32, i32, i32, [2 x i32], [2 x i32], [2 x i32], i32, ptr }
%struct.kwsysProcessTime_s = type { i64, i64 }
%struct.fd_set = type { [16 x i64] }

; Function Attrs: nounwind uwtable
define dso_local void @cmsysProcess_SetPipeShared(ptr noundef %0, i32 noundef %1, i32 noundef %2) #0 {
  %4 = alloca ptr, align 8
  %5 = alloca i32, align 4
  %6 = alloca i32, align 4
  store ptr %0, ptr %4, align 8, !tbaa !4
  store i32 %1, ptr %5, align 4, !tbaa !20
  store i32 %2, ptr %6, align 4, !tbaa !20
  %7 = load ptr, ptr %4, align 8, !tbaa !4
  %8 = icmp ne ptr %7, null
  br i1 %8, label %10, label %9

9:                                                ; preds = %3
  br label %40

10:                                               ; preds = %3
  %11 = load i32, ptr %5, align 4, !tbaa !20
  switch i32 %11, label %30 [
    i32 1, label %12
    i32 2, label %18
    i32 3, label %24
  ]

12:                                               ; preds = %10
  %13 = load i32, ptr %6, align 4, !tbaa !20
  %14 = icmp ne i32 %13, 0
  %15 = select i1 %14, i32 1, i32 0
  %16 = load ptr, ptr %4, align 8, !tbaa !4
  %17 = getelementptr inbounds nuw %struct.cmsysProcess_s, ptr %16, i32 0, i32 29
  store i32 %15, ptr %17, align 8, !tbaa !9
  br label %31

18:                                               ; preds = %10
  %19 = load i32, ptr %6, align 4, !tbaa !20
  %20 = icmp ne i32 %19, 0
  %21 = select i1 %20, i32 1, i32 0
  %22 = load ptr, ptr %4, align 8, !tbaa !4
  %23 = getelementptr inbounds nuw %struct.cmsysProcess_s, ptr %22, i32 0, i32 30
  store i32 %21, ptr %23, align 4, !tbaa !57
  br label %31

24:                                               ; preds = %10
  %25 = load i32, ptr %6, align 4, !tbaa !20
  %26 = icmp ne i32 %25, 0
  %27 = select i1 %26, i32 1, i32 0
  %28 = load ptr, ptr %4, align 8, !tbaa !4
  %29 = getelementptr inbounds nuw %struct.cmsysProcess_s, ptr %28, i32 0, i32 31
  store i32 %27, ptr %29, align 8, !tbaa !58
  br label %31

30:                                               ; preds = %10
  br label %40

31:                                               ; preds = %24, %18, %12
  %32 = load i32, ptr %6, align 4, !tbaa !20
  %33 = icmp ne i32 %32, 0
  br i1 %33, label %34, label %40

34:                                               ; preds = %31
  %35 = load ptr, ptr %4, align 8, !tbaa !4
  %36 = load i32, ptr %5, align 4, !tbaa !20
  %37 = call i32 @cmsysProcess_SetPipeFile(ptr noundef %35, i32 noundef %36, ptr noundef null)
  %38 = load ptr, ptr %4, align 8, !tbaa !4
  %39 = load i32, ptr %5, align 4, !tbaa !20
  call void @cmsysProcess_SetPipeNative(ptr noundef %38, i32 noundef %39, ptr noundef null)
  br label %40

40:                                               ; preds = %9, %30, %34, %31
  ret void
}

; Function Attrs: nounwind uwtable
define dso_local i32 @cmsysProcess_SetPipeFile(ptr noundef %0, i32 noundef %1, ptr noundef %2) #0 {
  %4 = alloca i32, align 4
  %5 = alloca ptr, align 8
  %6 = alloca i32, align 4
  %7 = alloca ptr, align 8
  %8 = alloca ptr, align 8
  %9 = alloca i32, align 4
  store ptr %0, ptr %5, align 8, !tbaa !4
  store i32 %1, ptr %6, align 4, !tbaa !20
  store ptr %2, ptr %7, align 8, !tbaa !42
  call void @llvm.lifetime.start.p0(i64 8, ptr %8) #11
  %10 = load ptr, ptr %5, align 8, !tbaa !4
  %11 = icmp ne ptr %10, null
  br i1 %11, label %13, label %12

12:                                               ; preds = %3
  store i32 0, ptr %4, align 4
  store i32 1, ptr %9, align 4
  br label %55

13:                                               ; preds = %3
  %14 = load i32, ptr %6, align 4, !tbaa !20
  switch i32 %14, label %24 [
    i32 1, label %15
    i32 2, label %18
    i32 3, label %21
  ]

15:                                               ; preds = %13
  %16 = load ptr, ptr %5, align 8, !tbaa !4
  %17 = getelementptr inbounds nuw %struct.cmsysProcess_s, ptr %16, i32 0, i32 26
  store ptr %17, ptr %8, align 8, !tbaa !39
  br label %25

18:                                               ; preds = %13
  %19 = load ptr, ptr %5, align 8, !tbaa !4
  %20 = getelementptr inbounds nuw %struct.cmsysProcess_s, ptr %19, i32 0, i32 27
  store ptr %20, ptr %8, align 8, !tbaa !39
  br label %25

21:                                               ; preds = %13
  %22 = load ptr, ptr %5, align 8, !tbaa !4
  %23 = getelementptr inbounds nuw %struct.cmsysProcess_s, ptr %22, i32 0, i32 28
  store ptr %23, ptr %8, align 8, !tbaa !39
  br label %25

24:                                               ; preds = %13
  store i32 0, ptr %4, align 4
  store i32 1, ptr %9, align 4
  br label %55

25:                                               ; preds = %21, %18, %15
  %26 = load ptr, ptr %8, align 8, !tbaa !39
  %27 = load ptr, ptr %26, align 8, !tbaa !42
  %28 = icmp ne ptr %27, null
  br i1 %28, label %29, label %33

29:                                               ; preds = %25
  %30 = load ptr, ptr %8, align 8, !tbaa !39
  %31 = load ptr, ptr %30, align 8, !tbaa !42
  call void @free(ptr noundef %31) #11
  %32 = load ptr, ptr %8, align 8, !tbaa !39
  store ptr null, ptr %32, align 8, !tbaa !42
  br label %33

33:                                               ; preds = %29, %25
  %34 = load ptr, ptr %7, align 8, !tbaa !42
  %35 = icmp ne ptr %34, null
  br i1 %35, label %36, label %45

36:                                               ; preds = %33
  %37 = load ptr, ptr %7, align 8, !tbaa !42
  %38 = call noalias ptr @strdup(ptr noundef %37) #11
  %39 = load ptr, ptr %8, align 8, !tbaa !39
  store ptr %38, ptr %39, align 8, !tbaa !42
  %40 = load ptr, ptr %8, align 8, !tbaa !39
  %41 = load ptr, ptr %40, align 8, !tbaa !42
  %42 = icmp ne ptr %41, null
  br i1 %42, label %44, label %43

43:                                               ; preds = %36
  store i32 0, ptr %4, align 4
  store i32 1, ptr %9, align 4
  br label %55

44:                                               ; preds = %36
  br label %45

45:                                               ; preds = %44, %33
  %46 = load ptr, ptr %8, align 8, !tbaa !39
  %47 = load ptr, ptr %46, align 8, !tbaa !42
  %48 = icmp ne ptr %47, null
  br i1 %48, label %49, label %54

49:                                               ; preds = %45
  %50 = load ptr, ptr %5, align 8, !tbaa !4
  %51 = load i32, ptr %6, align 4, !tbaa !20
  call void @cmsysProcess_SetPipeNative(ptr noundef %50, i32 noundef %51, ptr noundef null)
  %52 = load ptr, ptr %5, align 8, !tbaa !4
  %53 = load i32, ptr %6, align 4, !tbaa !20
  call void @cmsysProcess_SetPipeShared(ptr noundef %52, i32 noundef %53, i32 noundef 0)
  br label %54

54:                                               ; preds = %49, %45
  store i32 1, ptr %4, align 4
  store i32 1, ptr %9, align 4
  br label %55

55:                                               ; preds = %54, %43, %24, %12
  call void @llvm.lifetime.end.p0(i64 8, ptr %8) #11
  %56 = load i32, ptr %4, align 4
  ret i32 %56
}

; Function Attrs: nounwind uwtable
define dso_local void @cmsysProcess_SetPipeNative(ptr noundef %0, i32 noundef %1, ptr noundef %2) #0 {
  %4 = alloca ptr, align 8
  %5 = alloca i32, align 4
  %6 = alloca ptr, align 8
  %7 = alloca ptr, align 8
  %8 = alloca i32, align 4
  store ptr %0, ptr %4, align 8, !tbaa !4
  store i32 %1, ptr %5, align 4, !tbaa !20
  store ptr %2, ptr %6, align 8, !tbaa !56
  call void @llvm.lifetime.start.p0(i64 8, ptr %7) #11
  store ptr null, ptr %7, align 8, !tbaa !56
  %9 = load ptr, ptr %4, align 8, !tbaa !4
  %10 = icmp ne ptr %9, null
  br i1 %10, label %12, label %11

11:                                               ; preds = %3
  store i32 1, ptr %8, align 4
  br label %56

12:                                               ; preds = %3
  %13 = load i32, ptr %5, align 4, !tbaa !20
  switch i32 %13, label %26 [
    i32 1, label %14
    i32 2, label %18
    i32 3, label %22
  ]

14:                                               ; preds = %12
  %15 = load ptr, ptr %4, align 8, !tbaa !4
  %16 = getelementptr inbounds nuw %struct.cmsysProcess_s, ptr %15, i32 0, i32 32
  %17 = getelementptr inbounds [2 x i32], ptr %16, i64 0, i64 0
  store ptr %17, ptr %7, align 8, !tbaa !56
  br label %27

18:                                               ; preds = %12
  %19 = load ptr, ptr %4, align 8, !tbaa !4
  %20 = getelementptr inbounds nuw %struct.cmsysProcess_s, ptr %19, i32 0, i32 33
  %21 = getelementptr inbounds [2 x i32], ptr %20, i64 0, i64 0
  store ptr %21, ptr %7, align 8, !tbaa !56
  br label %27

22:                                               ; preds = %12
  %23 = load ptr, ptr %4, align 8, !tbaa !4
  %24 = getelementptr inbounds nuw %struct.cmsysProcess_s, ptr %23, i32 0, i32 34
  %25 = getelementptr inbounds [2 x i32], ptr %24, i64 0, i64 0
  store ptr %25, ptr %7, align 8, !tbaa !56
  br label %27

26:                                               ; preds = %12
  store i32 1, ptr %8, align 4
  br label %56

27:                                               ; preds = %22, %18, %14
  %28 = load ptr, ptr %6, align 8, !tbaa !56
  %29 = icmp ne ptr %28, null
  br i1 %29, label %30, label %41

30:                                               ; preds = %27
  %31 = load ptr, ptr %6, align 8, !tbaa !56
  %32 = getelementptr inbounds i32, ptr %31, i64 0
  %33 = load i32, ptr %32, align 4, !tbaa !20
  %34 = load ptr, ptr %7, align 8, !tbaa !56
  %35 = getelementptr inbounds i32, ptr %34, i64 0
  store i32 %33, ptr %35, align 4, !tbaa !20
  %36 = load ptr, ptr %6, align 8, !tbaa !56
  %37 = getelementptr inbounds i32, ptr %36, i64 1
  %38 = load i32, ptr %37, align 4, !tbaa !20
  %39 = load ptr, ptr %7, align 8, !tbaa !56
  %40 = getelementptr inbounds i32, ptr %39, i64 1
  store i32 %38, ptr %40, align 4, !tbaa !20
  br label %46

41:                                               ; preds = %27
  %42 = load ptr, ptr %7, align 8, !tbaa !56
  %43 = getelementptr inbounds i32, ptr %42, i64 0
  store i32 -1, ptr %43, align 4, !tbaa !20
  %44 = load ptr, ptr %7, align 8, !tbaa !56
  %45 = getelementptr inbounds i32, ptr %44, i64 1
  store i32 -1, ptr %45, align 4, !tbaa !20
  br label %46

46:                                               ; preds = %41, %30
  %47 = load ptr, ptr %6, align 8, !tbaa !56
  %48 = icmp ne ptr %47, null
  br i1 %48, label %49, label %55

49:                                               ; preds = %46
  %50 = load ptr, ptr %4, align 8, !tbaa !4
  %51 = load i32, ptr %5, align 4, !tbaa !20
  %52 = call i32 @cmsysProcess_SetPipeFile(ptr noundef %50, i32 noundef %51, ptr noundef null)
  %53 = load ptr, ptr %4, align 8, !tbaa !4
  %54 = load i32, ptr %5, align 4, !tbaa !20
  call void @cmsysProcess_SetPipeShared(ptr noundef %53, i32 noundef %54, i32 noundef 0)
  br label %55

55:                                               ; preds = %49, %46
  store i32 0, ptr %8, align 4
  br label %56

56:                                               ; preds = %55, %26, %11
  call void @llvm.lifetime.end.p0(i64 8, ptr %7) #11
  %57 = load i32, ptr %8, align 4
  switch i32 %57, label %59 [
    i32 0, label %58
    i32 1, label %58
  ]

58:                                               ; preds = %56, %56
  ret void

59:                                               ; preds = %56
  unreachable
}