; Function Attrs: mustprogress nounwind willreturn uwtable
define dso_local void @cmsysProcess_SetPipeNative(ptr noundef %0, i32 noundef %1, ptr noundef readonly %2) local_unnamed_addr #5 {
  %.not = icmp eq ptr %0, null
  br i1 %.not, label %cmsysProcess_SetPipeShared.exit, label %4

4:                                                ; preds = %3
  %switch.tableidx = add i32 %1, -1
  %5 = icmp ult i32 %switch.tableidx, 3
  br i1 %5, label %switch.lookup, label %cmsysProcess_SetPipeShared.exit

switch.lookup:                                    ; preds = %4
  %6 = shl nuw nsw i32 %switch.tableidx, 3
  %7 = zext nneg i32 %6 to i64
  %8 = getelementptr inbounds nuw i8, ptr %0, i64 %7
  %9 = getelementptr inbounds nuw i8, ptr %8, i64 2380
  %.not18 = icmp eq ptr %2, null
  br i1 %.not18, label %.thread, label %switch.lookup21

.thread:                                          ; preds = %switch.lookup
  store i32 -1, ptr %9, align 4, !tbaa !35
  %10 = getelementptr inbounds nuw i8, ptr %8, i64 2384
  store i32 -1, ptr %10, align 4, !tbaa !35
  br label %cmsysProcess_SetPipeShared.exit

switch.lookup21:                                  ; preds = %switch.lookup
  %11 = load i32, ptr %2, align 4, !tbaa !35
  store i32 %11, ptr %9, align 4, !tbaa !35
  %12 = getelementptr inbounds nuw i8, ptr %2, i64 4
  %13 = load i32, ptr %12, align 4, !tbaa !35
  %14 = getelementptr inbounds nuw i8, ptr %8, i64 2384
  store i32 %13, ptr %14, align 4, !tbaa !35
  %switch.tableidx22 = add nsw i32 %1, -1
  %switch.idx.cast23 = zext i32 %switch.tableidx22 to i64
  %switch.idx.mult24 = shl nuw nsw i64 %switch.idx.cast23, 3
  %15 = getelementptr inbounds nuw i8, ptr %0, i64 %switch.idx.mult24
  %16 = getelementptr inbounds nuw i8, ptr %15, i64 2344
  %17 = load ptr, ptr %16, align 8, !tbaa !26
  %.not21.i = icmp eq ptr %17, null
  br i1 %.not21.i, label %cmsysProcess_SetPipeFile.exit, label %18

18:                                               ; preds = %switch.lookup21
  tail call void @free(ptr noundef nonnull %17) #25
  store ptr null, ptr %16, align 8, !tbaa !26
  br label %cmsysProcess_SetPipeFile.exit

cmsysProcess_SetPipeFile.exit:                    ; preds = %18, %switch.lookup21
  switch i32 %1, label %default.unreachable20 [
    i32 1, label %19
    i32 2, label %21
    i32 3, label %23
  ]

19:                                               ; preds = %cmsysProcess_SetPipeFile.exit
  %20 = getelementptr inbounds nuw i8, ptr %0, i64 2368
  store i32 0, ptr %20, align 8, !tbaa !4
  br label %cmsysProcess_SetPipeShared.exit

21:                                               ; preds = %cmsysProcess_SetPipeFile.exit
  %22 = getelementptr inbounds nuw i8, ptr %0, i64 2372
  store i32 0, ptr %22, align 4, !tbaa !42
  br label %cmsysProcess_SetPipeShared.exit

23:                                               ; preds = %cmsysProcess_SetPipeFile.exit
  %24 = getelementptr inbounds nuw i8, ptr %0, i64 2376
  store i32 0, ptr %24, align 8, !tbaa !43
  br label %cmsysProcess_SetPipeShared.exit

default.unreachable20:                            ; preds = %cmsysProcess_SetPipeFile.exit
  unreachable

cmsysProcess_SetPipeShared.exit:                  ; preds = %4, %23, %21, %19, %.thread, %3
  ret void
}